; Function Attrs: nounwind uwtable
define i32 @glfwGetPhysicalDevicePresentationSupport(ptr noundef %0, ptr noundef %1, i32 noundef %2) local_unnamed_addr #0 {
  %4 = load i32, ptr @_glfw, align 8, !tbaa !105
  %.not = icmp eq i32 %4, 0
  br i1 %.not, label %5, label %6

5:                                                ; preds = %3
  tail call void (i32, ptr, ...) @_glfwInputError(i32 noundef 65537, ptr noundef null) #5
  br label %14

6:                                                ; preds = %3
  %7 = tail call i32 @_glfwInitVulkan(i32 noundef 2)
  %.not3 = icmp eq i32 %7, 0
  br i1 %.not3, label %14, label %8

8:                                                ; preds = %6
  %9 = load ptr, ptr getelementptr inbounds nuw (i8, ptr @_glfw, i64 133816), align 8, !tbaa !106
  %.not4 = icmp eq ptr %9, null
  br i1 %.not4, label %10, label %11

10:                                               ; preds = %8
  tail call void (i32, ptr, ...) @_glfwInputError(i32 noundef 65542, ptr noundef nonnull @.str.39) #5
  br label %14

11:                                               ; preds = %8
  %12 = load ptr, ptr getelementptr inbounds nuw (i8, ptr @_glfw, i64 600), align 8, !tbaa !107
  %13 = tail call i32 %12(ptr noundef %0, ptr noundef %1, i32 noundef %2) #5
  br label %14

14:                                               ; preds = %6, %11, %10, %5
  %.0 = phi i32 [ %13, %11 ], [ 0, %10 ], [ 0, %5 ], [ 0, %6 ]
  ret i32 %.0
}